target datalayout = "e-m:e-p270:32:32-p271:32:32-p272:64:64-i64:64-i128:128-f80:128-n8:16:32:64-S128"
target triple = "x86_64-pc-linux-gnu"

; Function Attrs: mustprogress nounwind uwtable
define void @_Z24gmx_mat4_transform_pointPA4_fPKfPf(ptr noundef %0, ptr noundef %1, ptr noundef %2) #0 {
  %4 = alloca ptr, align 8
  %5 = alloca ptr, align 8
  %6 = alloca ptr, align 8
  %7 = alloca i32, align 4
  store ptr %0, ptr %4, align 8
  store ptr %1, ptr %5, align 8
  store ptr %2, ptr %6, align 8
  store i32 0, ptr %7, align 4
  br label %8

8:                                                ; preds = %53, %3
  %9 = load i32, ptr %7, align 4
  %10 = icmp slt i32 %9, 4
  br i1 %10, label %11, label %56

11:                                               ; preds = %8
  %12 = load ptr, ptr %4, align 8
  %13 = getelementptr inbounds [4 x float], ptr %12, i64 0
  %14 = load i32, ptr %7, align 4
  %15 = sext i32 %14 to i64
  %16 = getelementptr inbounds [4 x float], ptr %13, i64 0, i64 %15
  %17 = load float, ptr %16, align 4
  %18 = load ptr, ptr %5, align 8
  %19 = getelementptr inbounds float, ptr %18, i64 0
  %20 = load float, ptr %19, align 4
  %21 = load ptr, ptr %4, align 8
  %22 = getelementptr inbounds [4 x float], ptr %21, i64 1
  %23 = load i32, ptr %7, align 4
  %24 = sext i32 %23 to i64
  %25 = getelementptr inbounds [4 x float], ptr %22, i64 0, i64 %24
  %26 = load float, ptr %25, align 4
  %27 = load ptr, ptr %5, align 8
  %28 = getelementptr inbounds float, ptr %27, i64 1
  %29 = load float, ptr %28, align 4
  %30 = fmul float %26, %29
  %31 = call float @llvm.fmuladd.f32(float %17, float %20, float %30)
  %32 = load ptr, ptr %4, align 8
  %33 = getelementptr inbounds [4 x float], ptr %32, i64 2
  %34 = load i32, ptr %7, align 4
  %35 = sext i32 %34 to i64
  %36 = getelementptr inbounds [4 x float], ptr %33, i64 0, i64 %35
  %37 = load float, ptr %36, align 4
  %38 = load ptr, ptr %5, align 8
  %39 = getelementptr inbounds float, ptr %38, i64 2
  %40 = load float, ptr %39, align 4
  %41 = call float @llvm.fmuladd.f32(float %37, float %40, float %31)
  %42 = load ptr, ptr %4, align 8
  %43 = getelementptr inbounds [4 x float], ptr %42, i64 3
  %44 = load i32, ptr %7, align 4
  %45 = sext i32 %44 to i64
  %46 = getelementptr inbounds [4 x float], ptr %43, i64 0, i64 %45
  %47 = load float, ptr %46, align 4
  %48 = fadd float %41, %47
  %49 = load ptr, ptr %6, align 8
  %50 = load i32, ptr %7, align 4
  %51 = sext i32 %50 to i64
  %52 = getelementptr inbounds float, ptr %49, i64 %51
  store float %48, ptr %52, align 4
  br label %53

53:                                               ; preds = %11
  %54 = load i32, ptr %7, align 4
  %55 = add nsw i32 %54, 1
  store i32 %55, ptr %7, align 4
  br label %8, !llvm.loop !8

56:                                               ; preds = %8
  ret void
}