; Function Attrs: mustprogress nofree norecurse nosync nounwind memory(argmem: readwrite) uwtable
define void @_Z24gmx_mat4_transform_pointPA4_fPKfPf(ptr nocapture noundef readonly %0, ptr nocapture noundef readonly %1, ptr nocapture noundef writeonly %2) local_unnamed_addr #0 {
  %4 = getelementptr inbounds i8, ptr %0, i64 16
  %5 = getelementptr inbounds i8, ptr %1, i64 4
  %6 = getelementptr inbounds i8, ptr %0, i64 32
  %7 = getelementptr inbounds i8, ptr %1, i64 8
  %8 = getelementptr inbounds i8, ptr %0, i64 48
  br label %9

9:                                                ; preds = %3, %9
  %indvars.iv = phi i64 [ 0, %3 ], [ %indvars.iv.next, %9 ]
  %10 = getelementptr inbounds [4 x float], ptr %0, i64 0, i64 %indvars.iv
  %11 = load float, ptr %10, align 4
  %12 = load float, ptr %1, align 4
  %13 = getelementptr inbounds [4 x float], ptr %4, i64 0, i64 %indvars.iv
  %14 = load float, ptr %13, align 4
  %15 = load float, ptr %5, align 4
  %16 = fmul float %14, %15
  %17 = tail call float @llvm.fmuladd.f32(float %11, float %12, float %16)
  %18 = getelementptr inbounds [4 x float], ptr %6, i64 0, i64 %indvars.iv
  %19 = load float, ptr %18, align 4
  %20 = load float, ptr %7, align 4
  %21 = tail call float @llvm.fmuladd.f32(float %19, float %20, float %17)
  %22 = getelementptr inbounds [4 x float], ptr %8, i64 0, i64 %indvars.iv
  %23 = load float, ptr %22, align 4
  %24 = fadd float %21, %23
  %25 = getelementptr inbounds float, ptr %2, i64 %indvars.iv
  store float %24, ptr %25, align 4
  %indvars.iv.next = add nuw nsw i64 %indvars.iv, 1
  %exitcond.not = icmp eq i64 %indvars.iv.next, 4
  br i1 %exitcond.not, label %26, label %9, !llvm.loop !8

26:                                               ; preds = %9
  ret void
}